target datalayout = "e-m:e-p270:32:32-p271:32:32-p272:64:64-i64:64-i128:128-f80:128-n8:16:32:64-S128"
target triple = "x86_64-pc-linux-gnu"

%struct._expr = type { i32, %union.anon.34, i32, i32, i32, i32 }
%union.anon.34 = type { %struct.anon.37 }
%struct.anon.37 = type { ptr, i32, ptr }
%struct.asdl_expr_seq = type { i64, ptr, [1 x ptr] }
%struct.anon.50 = type { ptr, ptr, ptr }
%struct.asdl_int_seq = type { i64, ptr, [1 x i32] }

; Function Attrs: nounwind uwtable
define internal i32 @fold_compare(ptr noundef %0, ptr noundef %1, ptr noundef %2) #0 {
  %4 = alloca i32, align 4
  %5 = alloca ptr, align 8
  %6 = alloca ptr, align 8
  %7 = alloca ptr, align 8
  %8 = alloca ptr, align 8
  %9 = alloca ptr, align 8
  %10 = alloca i64, align 8
  %11 = alloca i32, align 4
  %12 = alloca i32, align 4
  store ptr %0, ptr %5, align 8, !tbaa !44
  store ptr %1, ptr %6, align 8, !tbaa !9
  store ptr %2, ptr %7, align 8, !tbaa !32
  call void @llvm.lifetime.start.p0(i64 8, ptr %8) #8
  call void @llvm.lifetime.start.p0(i64 8, ptr %9) #8
  call void @llvm.lifetime.start.p0(i64 8, ptr %10) #8
  %13 = load ptr, ptr %5, align 8, !tbaa !44
  %14 = getelementptr inbounds nuw %struct._expr, ptr %13, i32 0, i32 1
  %15 = getelementptr inbounds nuw %struct.anon.50, ptr %14, i32 0, i32 1
  %16 = load ptr, ptr %15, align 8, !tbaa !35
  store ptr %16, ptr %8, align 8, !tbaa !32
  %17 = load ptr, ptr %5, align 8, !tbaa !44
  %18 = getelementptr inbounds nuw %struct._expr, ptr %17, i32 0, i32 1
  %19 = getelementptr inbounds nuw %struct.anon.50, ptr %18, i32 0, i32 2
  %20 = load ptr, ptr %19, align 8, !tbaa !35
  store ptr %20, ptr %9, align 8, !tbaa !32
  %21 = load ptr, ptr %8, align 8, !tbaa !32
  %22 = icmp eq ptr %21, null
  br i1 %22, label %23, label %24

23:                                               ; preds = %3
  br label %28

24:                                               ; preds = %3
  %25 = load ptr, ptr %8, align 8, !tbaa !32
  %26 = getelementptr inbounds nuw %struct.asdl_int_seq, ptr %25, i32 0, i32 0
  %27 = load i64, ptr %26, align 8, !tbaa !37
  br label %28

28:                                               ; preds = %24, %23
  %29 = phi i64 [ 0, %23 ], [ %27, %24 ]
  %30 = sub i64 %29, 1
  store i64 %30, ptr %10, align 8, !tbaa !36
  call void @llvm.lifetime.start.p0(i64 4, ptr %11) #8
  %31 = load ptr, ptr %8, align 8, !tbaa !32
  %32 = getelementptr inbounds nuw %struct.asdl_int_seq, ptr %31, i32 0, i32 2
  %33 = load i64, ptr %10, align 8, !tbaa !36
  %34 = getelementptr [1 x i32], ptr %32, i64 0, i64 %33
  %35 = load i32, ptr %34, align 4, !tbaa !11
  store i32 %35, ptr %11, align 4, !tbaa !11
  %36 = load i32, ptr %11, align 4, !tbaa !11
  %37 = icmp eq i32 %36, 9
  br i1 %37, label %41, label %38

38:                                               ; preds = %28
  %39 = load i32, ptr %11, align 4, !tbaa !11
  %40 = icmp eq i32 %39, 10
  br i1 %40, label %41, label %53

41:                                               ; preds = %38, %28
  %42 = load ptr, ptr %9, align 8, !tbaa !32
  %43 = getelementptr inbounds nuw %struct.asdl_expr_seq, ptr %42, i32 0, i32 2
  %44 = load i64, ptr %10, align 8, !tbaa !36
  %45 = getelementptr [1 x ptr], ptr %43, i64 0, i64 %44
  %46 = load ptr, ptr %45, align 8, !tbaa !44
  %47 = load ptr, ptr %6, align 8, !tbaa !9
  %48 = load ptr, ptr %7, align 8, !tbaa !32
  %49 = call i32 @fold_iter(ptr noundef %46, ptr noundef %47, ptr noundef %48)
  %50 = icmp ne i32 %49, 0
  br i1 %50, label %52, label %51

51:                                               ; preds = %41
  store i32 0, ptr %4, align 4
  store i32 1, ptr %12, align 4
  br label %54

52:                                               ; preds = %41
  br label %53

53:                                               ; preds = %52, %38
  store i32 1, ptr %4, align 4
  store i32 1, ptr %12, align 4
  br label %54

54:                                               ; preds = %53, %51
  call void @llvm.lifetime.end.p0(i64 4, ptr %11) #8
  call void @llvm.lifetime.end.p0(i64 8, ptr %10) #8
  call void @llvm.lifetime.end.p0(i64 8, ptr %9) #8
  call void @llvm.lifetime.end.p0(i64 8, ptr %8) #8
  %55 = load i32, ptr %4, align 4
  ret i32 %55
}