; Function Attrs: nounwind uwtable
define internal fastcc range(i32 0, 2) i32 @fold_compare(ptr readonly %.16.val, ptr readonly captures(none) %.24.val, ptr noundef %0) unnamed_addr #0 {
  %2 = icmp eq ptr %.16.val, null
  br i1 %2, label %6, label %3

3:                                                ; preds = %1
  %4 = load i64, ptr %.16.val, align 8, !tbaa !29
  %5 = add i64 %4, -1
  br label %6

6:                                                ; preds = %1, %3
  %7 = phi i64 [ %5, %3 ], [ -1, %1 ]
  %8 = getelementptr inbounds nuw i8, ptr %.16.val, i64 16
  %9 = getelementptr [1 x i32], ptr %8, i64 0, i64 %7
  %10 = load i32, ptr %9, align 4, !tbaa !170
  %11 = add i32 %10, -9
  %or.cond = icmp ult i32 %11, 2
  br i1 %or.cond, label %12, label %17

12:                                               ; preds = %6
  %13 = getelementptr inbounds nuw i8, ptr %.24.val, i64 16
  %14 = getelementptr [1 x ptr], ptr %13, i64 0, i64 %7
  %15 = load ptr, ptr %14, align 8, !tbaa !37
  %16 = tail call fastcc i32 @fold_iter(ptr noundef %15, ptr noundef %0)
  %.not = icmp eq i32 %16, 0
  br i1 %.not, label %18, label %17

17:                                               ; preds = %12, %6
  br label %18

18:                                               ; preds = %12, %17
  %.0 = phi i32 [ 1, %17 ], [ 0, %12 ]
  ret i32 %.0
}